target datalayout = "e-m:e-p270:32:32-p271:32:32-p272:64:64-i64:64-i128:128-f80:128-n8:16:32:64-S128"
target triple = "x86_64-unknown-linux-gnu"

%"class.icu_75::TextTrieMapSearchResultHandler" = type { ptr }
%"class.icu_75::TZDBNameSearchHandler" = type { %"class.icu_75::TextTrieMapSearchResultHandler", i32, i32, ptr, ptr }

; Function Attrs: mustprogress nounwind uwtable
define noundef ptr @_ZN6icu_7521TZDBNameSearchHandler10getMatchesERi(ptr noundef nonnull align 8 dereferenceable(32) %this, ptr noundef nonnull align 4 dereferenceable(4) %maxMatchLen) #0 align 2 {
entry:
  %this.addr = alloca ptr, align 8
  %maxMatchLen.addr = alloca ptr, align 8
  %results = alloca ptr, align 8
  store ptr %this, ptr %this.addr, align 8
  store ptr %maxMatchLen, ptr %maxMatchLen.addr, align 8
  %this1 = load ptr, ptr %this.addr, align 8
  %fResults = getelementptr inbounds %"class.icu_75::TZDBNameSearchHandler", ptr %this1, i32 0, i32 3
  %0 = load ptr, ptr %fResults, align 8
  store ptr %0, ptr %results, align 8
  %fMaxMatchLen = getelementptr inbounds %"class.icu_75::TZDBNameSearchHandler", ptr %this1, i32 0, i32 2
  %1 = load i32, ptr %fMaxMatchLen, align 4
  %2 = load ptr, ptr %maxMatchLen.addr, align 8
  store i32 %1, ptr %2, align 4
  %fResults2 = getelementptr inbounds %"class.icu_75::TZDBNameSearchHandler", ptr %this1, i32 0, i32 3
  store ptr null, ptr %fResults2, align 8
  %fMaxMatchLen3 = getelementptr inbounds %"class.icu_75::TZDBNameSearchHandler", ptr %this1, i32 0, i32 2
  store i32 0, ptr %fMaxMatchLen3, align 4
  %3 = load ptr, ptr %results, align 8
  ret ptr %3
}